; ModuleID = '4/2209.c'
source_filename = "4/2209.c"
target datalayout = "e-m:e-p270:32:32-p271:32:32-p272:64:64-i64:64-f80:128-n8:16:32:64-S128"
target triple = "x86_64-pc-linux-gnu"

@.str = private unnamed_addr constant [6 x i8] c"%d %d\00", align 1
@.str.1 = private unnamed_addr constant [3 x i8] c"%d\00", align 1
@.str.2 = private unnamed_addr constant [4 x i8] c"%d\0A\00", align 1

; Function Attrs: noinline nounwind uwtable
define dso_local void @main() #0 {
  %1 = alloca i32, align 4
  %2 = alloca i32, align 4
  %3 = alloca i32, align 4
  %4 = alloca i32, align 4
  %5 = alloca i32, align 4
  %6 = alloca [10000 x i32]*, align 8
  store i32 0, i32* %5, align 4
  %7 = call i32 (i8*, ...) @__isoc99_scanf(i8* getelementptr inbounds ([6 x i8], [6 x i8]* @.str, i64 0, i64 0), i32* %3, i32* %4)
  %8 = call noalias i8* @calloc(i64 10000, i64 10000) #3
  %9 = bitcast i8* %8 to [10000 x i32]*
  store [10000 x i32]* %9, [10000 x i32]** %6, align 8
  store i32 0, i32* %1, align 4
  br label %10

10:                                               ; preds = %35, %0
  %11 = load i32, i32* %1, align 4
  %12 = load i32, i32* %3, align 4
  %13 = sub nsw i32 %12, 1
  %14 = icmp sle i32 %11, %13
  br i1 %14, label %15, label %38

15:                                               ; preds = %10
  store i32 0, i32* %2, align 4
  br label %16

16:                                               ; preds = %31, %15
  %17 = load i32, i32* %2, align 4
  %18 = load i32, i32* %4, align 4
  %19 = sub nsw i32 %18, 1
  %20 = icmp sle i32 %17, %19
  br i1 %20, label %21, label %34

21:                                               ; preds = %16
  %22 = load [10000 x i32]*, [10000 x i32]** %6, align 8
  %23 = load i32, i32* %1, align 4
  %24 = sext i32 %23 to i64
  %25 = getelementptr inbounds [10000 x i32], [10000 x i32]* %22, i64 %24
  %26 = getelementptr inbounds [10000 x i32], [10000 x i32]* %25, i64 0, i64 0
  %27 = load i32, i32* %2, align 4
  %28 = sext i32 %27 to i64
  %29 = getelementptr inbounds i32, i32* %26, i64 %28
  %30 = call i32 (i8*, ...) @__isoc99_scanf(i8* getelementptr inbounds ([3 x i8], [3 x i8]* @.str.1, i64 0, i64 0), i32* %29)
  br label %31

31:                                               ; preds = %21
  %32 = load i32, i32* %2, align 4
  %33 = add nsw i32 %32, 1
  store i32 %33, i32* %2, align 4
  br label %16

34:                                               ; preds = %16
  br label %35

35:                                               ; preds = %34
  %36 = load i32, i32* %1, align 4
  %37 = add nsw i32 %36, 1
  store i32 %37, i32* %1, align 4
  br label %10

38:                                               ; preds = %10
  store i32 0, i32* %1, align 4
  store i32 0, i32* %2, align 4
  br label %39

39:                                               ; preds = %93, %38
  %40 = load i32, i32* %5, align 4
  %41 = load i32, i32* %4, align 4
  %42 = load i32, i32* %3, align 4
  %43 = add nsw i32 %41, %42
  %44 = sub nsw i32 %43, 1
  %45 = icmp slt i32 %40, %44
  br i1 %45, label %46, label %94

46:                                               ; preds = %39
  br label %47

47:                                               ; preds = %56, %46
  %48 = load i32, i32* %1, align 4
  %49 = load i32, i32* %3, align 4
  %50 = icmp ne i32 %48, %49
  br i1 %50, label %51, label %54

51:                                               ; preds = %47
  %52 = load i32, i32* %2, align 4
  %53 = icmp ne i32 %52, -1
  br label %54

54:                                               ; preds = %51, %47
  %55 = phi i1 [ false, %47 ], [ %53, %51 ]
  br i1 %55, label %56, label %71

56:                                               ; preds = %54
  %57 = load [10000 x i32]*, [10000 x i32]** %6, align 8
  %58 = load i32, i32* %1, align 4
  %59 = sext i32 %58 to i64
  %60 = getelementptr inbounds [10000 x i32], [10000 x i32]* %57, i64 %59
  %61 = getelementptr inbounds [10000 x i32], [10000 x i32]* %60, i64 0, i64 0
  %62 = load i32, i32* %2, align 4
  %63 = sext i32 %62 to i64
  %64 = getelementptr inbounds i32, i32* %61, i64 %63
  %65 = load i32, i32* %64, align 4
  %66 = call i32 (i8*, ...) @printf(i8* getelementptr inbounds ([4 x i8], [4 x i8]* @.str.2, i64 0, i64 0), i32 %65)
  %67 = load i32, i32* %1, align 4
  %68 = add nsw i32 %67, 1
  store i32 %68, i32* %1, align 4
  %69 = load i32, i32* %2, align 4
  %70 = add nsw i32 %69, -1
  store i32 %70, i32* %2, align 4
  br label %47

71:                                               ; preds = %54
  %72 = load i32, i32* %5, align 4
  %73 = add nsw i32 %72, 1
  store i32 %73, i32* %5, align 4
  %74 = load i32, i32* %5, align 4
  %75 = load i32, i32* %4, align 4
  %76 = sub nsw i32 %75, 1
  %77 = icmp sgt i32 %74, %76
  br i1 %77, label %78, label %85

78:                                               ; preds = %71
  %79 = load i32, i32* %4, align 4
  %80 = sub nsw i32 %79, 1
  store i32 %80, i32* %2, align 4
  %81 = load i32, i32* %5, align 4
  %82 = load i32, i32* %4, align 4
  %83 = sub nsw i32 %82, 1
  %84 = sub nsw i32 %81, %83
  store i32 %84, i32* %1, align 4
  br label %93

85:                                               ; preds = %71
  %86 = load i32, i32* %5, align 4
  %87 = load i32, i32* %4, align 4
  %88 = sub nsw i32 %87, 1
  %89 = icmp sle i32 %86, %88
  br i1 %89, label %90, label %92

90:                                               ; preds = %85
  %91 = load i32, i32* %5, align 4
  store i32 %91, i32* %2, align 4
  store i32 0, i32* %1, align 4
  br label %92

92:                                               ; preds = %90, %85
  br label %93

93:                                               ; preds = %92, %78
  br label %39

94:                                               ; preds = %39
  ret void
}

declare dso_local i32 @__isoc99_scanf(i8*, ...) #1

; Function Attrs: nounwind
declare dso_local noalias i8* @calloc(i64, i64) #2

declare dso_local i32 @printf(i8*, ...) #1


!llvm.module.flags = !{!0}
!llvm.ident = !{!1}

!0 = !{i32 1, !"wchar_size", i32 4}
!1 = !{!"clang version 10.0.0-4ubuntu1 "}
